target datalayout = "e-m:e-p270:32:32-p271:32:32-p272:64:64-i64:64-i128:128-f80:128-n8:16:32:64-S128"
target triple = "x86_64-pc-linux-gnu"

%struct.mbedtls_net_context = type { i32 }
%struct.sockaddr_storage = type { i16, [118 x i8], i64 }
%struct.sockaddr_in = type { i16, i16, %struct.in_addr, [8 x i8] }
%struct.in_addr = type { i32 }
%struct.sockaddr_in6 = type { i16, i16, i32, %struct.in6_addr, i32 }
%struct.in6_addr = type { %union.anon }
%union.anon = type { [4 x i32] }

; Function Attrs: nounwind uwtable
define internal i32 @net_would_block(ptr noundef %0) #0 {
  %2 = alloca i32, align 4
  %3 = alloca ptr, align 8
  %4 = alloca i32, align 4
  %5 = alloca i32, align 4
  store ptr %0, ptr %3, align 8, !tbaa !3
  call void @llvm.lifetime.start.p0(i64 4, ptr %4) #7
  %6 = call ptr @__errno_location() #8
  %7 = load i32, ptr %6, align 4, !tbaa !13
  store i32 %7, ptr %4, align 4, !tbaa !13
  %8 = load ptr, ptr %3, align 8, !tbaa !3
  %9 = getelementptr inbounds nuw %struct.mbedtls_net_context, ptr %8, i32 0, i32 0
  %10 = load i32, ptr %9, align 4, !tbaa !8
  %11 = call i32 (i32, i32, ...) @fcntl(i32 noundef %10, i32 noundef 3)
  %12 = and i32 %11, 2048
  %13 = icmp ne i32 %12, 2048
  br i1 %13, label %14, label %17

14:                                               ; preds = %1
  %15 = load i32, ptr %4, align 4, !tbaa !13
  %16 = call ptr @__errno_location() #8
  store i32 %15, ptr %16, align 4, !tbaa !13
  store i32 0, ptr %2, align 4
  store i32 1, ptr %5, align 4
  br label %22

17:                                               ; preds = %1
  %18 = load i32, ptr %4, align 4, !tbaa !13
  %19 = call ptr @__errno_location() #8
  store i32 %18, ptr %19, align 4, !tbaa !13
  switch i32 %18, label %21 [
    i32 11, label %20
  ]

20:                                               ; preds = %17
  store i32 1, ptr %2, align 4
  store i32 1, ptr %5, align 4
  br label %22

21:                                               ; preds = %17
  store i32 0, ptr %2, align 4
  store i32 1, ptr %5, align 4
  br label %22

22:                                               ; preds = %21, %20, %14
  call void @llvm.lifetime.end.p0(i64 4, ptr %4) #7
  %23 = load i32, ptr %2, align 4
  ret i32 %23
}

; Function Attrs: nounwind uwtable
define hidden i32 @mbedtls_net_accept(ptr noundef %0, ptr noundef %1, ptr noundef %2, i64 noundef %3, ptr noundef %4) #0 {
  %6 = alloca i32, align 4
  %7 = alloca ptr, align 8
  %8 = alloca ptr, align 8
  %9 = alloca ptr, align 8
  %10 = alloca i64, align 8
  %11 = alloca ptr, align 8
  %12 = alloca i32, align 4
  %13 = alloca i32, align 4
  %14 = alloca %struct.sockaddr_storage, align 8
  %15 = alloca i32, align 4
  %16 = alloca i32, align 4
  %17 = alloca i32, align 4
  %18 = alloca [1 x i8], align 1
  %19 = alloca %struct.sockaddr_storage, align 8
  %20 = alloca i32, align 4
  %21 = alloca ptr, align 8
  %22 = alloca ptr, align 8
  store ptr %0, ptr %7, align 8, !tbaa !3
  store ptr %1, ptr %8, align 8, !tbaa !3
  store ptr %2, ptr %9, align 8, !tbaa !28
  store i64 %3, ptr %10, align 8, !tbaa !29
  store ptr %4, ptr %11, align 8, !tbaa !31
  call void @llvm.lifetime.start.p0(i64 4, ptr %12) #7
  store i32 -110, ptr %12, align 4, !tbaa !13
  call void @llvm.lifetime.start.p0(i64 4, ptr %13) #7
  call void @llvm.lifetime.start.p0(i64 128, ptr %14) #7
  call void @llvm.lifetime.start.p0(i64 4, ptr %15) #7
  store i32 128, ptr %15, align 4, !tbaa !13
  call void @llvm.lifetime.start.p0(i64 4, ptr %16) #7
  store i32 4, ptr %16, align 4, !tbaa !13
  %23 = load ptr, ptr %7, align 8, !tbaa !3
  %24 = getelementptr inbounds nuw %struct.mbedtls_net_context, ptr %23, i32 0, i32 0
  %25 = load i32, ptr %24, align 4, !tbaa !8
  %26 = call i32 @getsockopt(i32 noundef %25, i32 noundef 1, i32 noundef 3, ptr noundef %13, ptr noundef %16) #7
  %27 = icmp ne i32 %26, 0
  br i1 %27, label %34, label %28

28:                                               ; preds = %5
  %29 = load i32, ptr %13, align 4, !tbaa !13
  %30 = icmp ne i32 %29, 1
  br i1 %30, label %31, label %35

31:                                               ; preds = %28
  %32 = load i32, ptr %13, align 4, !tbaa !13
  %33 = icmp ne i32 %32, 2
  br i1 %33, label %34, label %35

34:                                               ; preds = %31, %5
  store i32 -74, ptr %6, align 4
  store i32 1, ptr %17, align 4
  br label %156

35:                                               ; preds = %31, %28
  %36 = load i32, ptr %13, align 4, !tbaa !13
  %37 = icmp eq i32 %36, 1
  br i1 %37, label %38, label %45

38:                                               ; preds = %35
  %39 = load ptr, ptr %7, align 8, !tbaa !3
  %40 = getelementptr inbounds nuw %struct.mbedtls_net_context, ptr %39, i32 0, i32 0
  %41 = load i32, ptr %40, align 4, !tbaa !8
  %42 = call i32 @accept(i32 noundef %41, ptr noundef %14, ptr noundef %15)
  %43 = load ptr, ptr %8, align 8, !tbaa !3
  %44 = getelementptr inbounds nuw %struct.mbedtls_net_context, ptr %43, i32 0, i32 0
  store i32 %42, ptr %44, align 4, !tbaa !8
  store i32 %42, ptr %12, align 4, !tbaa !13
  br label %52

45:                                               ; preds = %35
  call void @llvm.lifetime.start.p0(i64 1, ptr %18) #7
  call void @llvm.memset.p0.i64(ptr align 1 %18, i8 0, i64 1, i1 false)
  %46 = load ptr, ptr %7, align 8, !tbaa !3
  %47 = getelementptr inbounds nuw %struct.mbedtls_net_context, ptr %46, i32 0, i32 0
  %48 = load i32, ptr %47, align 4, !tbaa !8
  %49 = getelementptr inbounds [1 x i8], ptr %18, i64 0, i64 0
  %50 = call i64 @recvfrom(i32 noundef %48, ptr noundef %49, i64 noundef 1, i32 noundef 2, ptr noundef %14, ptr noundef %15)
  %51 = trunc i64 %50 to i32
  store i32 %51, ptr %12, align 4, !tbaa !13
  call void @llvm.lifetime.end.p0(i64 1, ptr %18) #7
  br label %52

52:                                               ; preds = %45, %38
  %53 = load i32, ptr %12, align 4, !tbaa !13
  %54 = icmp slt i32 %53, 0
  br i1 %54, label %55, label %61

55:                                               ; preds = %52
  %56 = load ptr, ptr %7, align 8, !tbaa !3
  %57 = call i32 @net_would_block(ptr noundef %56)
  %58 = icmp ne i32 %57, 0
  br i1 %58, label %59, label %60

59:                                               ; preds = %55
  store i32 -26880, ptr %6, align 4
  store i32 1, ptr %17, align 4
  br label %156

60:                                               ; preds = %55
  store i32 -74, ptr %6, align 4
  store i32 1, ptr %17, align 4
  br label %156

61:                                               ; preds = %52
  %62 = load i32, ptr %13, align 4, !tbaa !13
  %63 = icmp ne i32 %62, 1
  br i1 %63, label %64, label %112

64:                                               ; preds = %61
  call void @llvm.lifetime.start.p0(i64 128, ptr %19) #7
  call void @llvm.lifetime.start.p0(i64 4, ptr %20) #7
  store i32 1, ptr %20, align 4, !tbaa !13
  %65 = load ptr, ptr %7, align 8, !tbaa !3
  %66 = getelementptr inbounds nuw %struct.mbedtls_net_context, ptr %65, i32 0, i32 0
  %67 = load i32, ptr %66, align 4, !tbaa !8
  %68 = load i32, ptr %15, align 4, !tbaa !13
  %69 = call i32 @connect(i32 noundef %67, ptr noundef %14, i32 noundef %68)
  %70 = icmp ne i32 %69, 0
  br i1 %70, label %71, label %72

71:                                               ; preds = %64
  store i32 -74, ptr %6, align 4
  store i32 1, ptr %17, align 4
  br label %109

72:                                               ; preds = %64
  %73 = load ptr, ptr %7, align 8, !tbaa !3
  %74 = getelementptr inbounds nuw %struct.mbedtls_net_context, ptr %73, i32 0, i32 0
  %75 = load i32, ptr %74, align 4, !tbaa !8
  %76 = load ptr, ptr %8, align 8, !tbaa !3
  %77 = getelementptr inbounds nuw %struct.mbedtls_net_context, ptr %76, i32 0, i32 0
  store i32 %75, ptr %77, align 4, !tbaa !8
  %78 = load ptr, ptr %7, align 8, !tbaa !3
  %79 = getelementptr inbounds nuw %struct.mbedtls_net_context, ptr %78, i32 0, i32 0
  store i32 -1, ptr %79, align 4, !tbaa !8
  store i32 128, ptr %15, align 4, !tbaa !13
  %80 = load ptr, ptr %8, align 8, !tbaa !3
  %81 = getelementptr inbounds nuw %struct.mbedtls_net_context, ptr %80, i32 0, i32 0
  %82 = load i32, ptr %81, align 4, !tbaa !8
  %83 = call i32 @getsockname(i32 noundef %82, ptr noundef %19, ptr noundef %15) #7
  %84 = icmp ne i32 %83, 0
  br i1 %84, label %99, label %85

85:                                               ; preds = %72
  %86 = getelementptr inbounds nuw %struct.sockaddr_storage, ptr %19, i32 0, i32 0
  %87 = load i16, ptr %86, align 8, !tbaa !33
  %88 = zext i16 %87 to i32
  %89 = call i32 @socket(i32 noundef %88, i32 noundef 2, i32 noundef 17) #7
  %90 = load ptr, ptr %7, align 8, !tbaa !3
  %91 = getelementptr inbounds nuw %struct.mbedtls_net_context, ptr %90, i32 0, i32 0
  store i32 %89, ptr %91, align 4, !tbaa !8
  %92 = icmp slt i32 %89, 0
  br i1 %92, label %99, label %93

93:                                               ; preds = %85
  %94 = load ptr, ptr %7, align 8, !tbaa !3
  %95 = getelementptr inbounds nuw %struct.mbedtls_net_context, ptr %94, i32 0, i32 0
  %96 = load i32, ptr %95, align 4, !tbaa !8
  %97 = call i32 @setsockopt(i32 noundef %96, i32 noundef 1, i32 noundef 2, ptr noundef %20, i32 noundef 4) #7
  %98 = icmp ne i32 %97, 0
  br i1 %98, label %99, label %100

99:                                               ; preds = %93, %85, %72
  store i32 -66, ptr %6, align 4
  store i32 1, ptr %17, align 4
  br label %109

100:                                              ; preds = %93
  %101 = load ptr, ptr %7, align 8, !tbaa !3
  %102 = getelementptr inbounds nuw %struct.mbedtls_net_context, ptr %101, i32 0, i32 0
  %103 = load i32, ptr %102, align 4, !tbaa !8
  %104 = load i32, ptr %15, align 4, !tbaa !13
  %105 = call i32 @bind(i32 noundef %103, ptr noundef %19, i32 noundef %104) #7
  %106 = icmp ne i32 %105, 0
  br i1 %106, label %107, label %108

107:                                              ; preds = %100
  store i32 -70, ptr %6, align 4
  store i32 1, ptr %17, align 4
  br label %109

108:                                              ; preds = %100
  store i32 0, ptr %17, align 4
  br label %109

109:                                              ; preds = %108, %107, %99, %71
  call void @llvm.lifetime.end.p0(i64 4, ptr %20) #7
  call void @llvm.lifetime.end.p0(i64 128, ptr %19) #7
  %110 = load i32, ptr %17, align 4
  switch i32 %110, label %156 [
    i32 0, label %111
  ]

111:                                              ; preds = %109
  br label %112

112:                                              ; preds = %111, %61
  %113 = load ptr, ptr %9, align 8, !tbaa !28
  %114 = icmp ne ptr %113, null
  br i1 %114, label %115, label %155

115:                                              ; preds = %112
  %116 = getelementptr inbounds nuw %struct.sockaddr_storage, ptr %14, i32 0, i32 0
  %117 = load i16, ptr %116, align 8, !tbaa !33
  %118 = zext i16 %117 to i32
  %119 = icmp eq i32 %118, 2
  br i1 %119, label %120, label %137

120:                                              ; preds = %115
  call void @llvm.lifetime.start.p0(i64 8, ptr %21) #7
  store ptr %14, ptr %21, align 8, !tbaa !36
  %121 = load ptr, ptr %11, align 8, !tbaa !31
  store i64 4, ptr %121, align 8, !tbaa !29
  %122 = load i64, ptr %10, align 8, !tbaa !29
  %123 = load ptr, ptr %11, align 8, !tbaa !31
  %124 = load i64, ptr %123, align 8, !tbaa !29
  %125 = icmp ult i64 %122, %124
  br i1 %125, label %126, label %127

126:                                              ; preds = %120
  store i32 -67, ptr %6, align 4
  store i32 1, ptr %17, align 4
  br label %134

127:                                              ; preds = %120
  %128 = load ptr, ptr %9, align 8, !tbaa !28
  %129 = load ptr, ptr %21, align 8, !tbaa !36
  %130 = getelementptr inbounds nuw %struct.sockaddr_in, ptr %129, i32 0, i32 2
  %131 = getelementptr inbounds nuw %struct.in_addr, ptr %130, i32 0, i32 0
  %132 = load ptr, ptr %11, align 8, !tbaa !31
  %133 = load i64, ptr %132, align 8, !tbaa !29
  call void @llvm.memcpy.p0.p0.i64(ptr align 1 %128, ptr align 4 %131, i64 %133, i1 false)
  store i32 0, ptr %17, align 4
  br label %134

134:                                              ; preds = %127, %126
  call void @llvm.lifetime.end.p0(i64 8, ptr %21) #7
  %135 = load i32, ptr %17, align 4
  switch i32 %135, label %156 [
    i32 0, label %136
  ]

136:                                              ; preds = %134
  br label %154

137:                                              ; preds = %115
  call void @llvm.lifetime.start.p0(i64 8, ptr %22) #7
  store ptr %14, ptr %22, align 8, !tbaa !38
  %138 = load ptr, ptr %11, align 8, !tbaa !31
  store i64 16, ptr %138, align 8, !tbaa !29
  %139 = load i64, ptr %10, align 8, !tbaa !29
  %140 = load ptr, ptr %11, align 8, !tbaa !31
  %141 = load i64, ptr %140, align 8, !tbaa !29
  %142 = icmp ult i64 %139, %141
  br i1 %142, label %143, label %144

143:                                              ; preds = %137
  store i32 -67, ptr %6, align 4
  store i32 1, ptr %17, align 4
  br label %151

144:                                              ; preds = %137
  %145 = load ptr, ptr %9, align 8, !tbaa !28
  %146 = load ptr, ptr %22, align 8, !tbaa !38
  %147 = getelementptr inbounds nuw %struct.sockaddr_in6, ptr %146, i32 0, i32 3
  %148 = getelementptr inbounds nuw %struct.in6_addr, ptr %147, i32 0, i32 0
  %149 = load ptr, ptr %11, align 8, !tbaa !31
  %150 = load i64, ptr %149, align 8, !tbaa !29
  call void @llvm.memcpy.p0.p0.i64(ptr align 1 %145, ptr align 4 %148, i64 %150, i1 false)
  store i32 0, ptr %17, align 4
  br label %151

151:                                              ; preds = %144, %143
  call void @llvm.lifetime.end.p0(i64 8, ptr %22) #7
  %152 = load i32, ptr %17, align 4
  switch i32 %152, label %156 [
    i32 0, label %153
  ]

153:                                              ; preds = %151
  br label %154

154:                                              ; preds = %153, %136
  br label %155

155:                                              ; preds = %154, %112
  store i32 0, ptr %6, align 4
  store i32 1, ptr %17, align 4
  br label %156

156:                                              ; preds = %155, %151, %134, %109, %60, %59, %34
  call void @llvm.lifetime.end.p0(i64 4, ptr %16) #7
  call void @llvm.lifetime.end.p0(i64 4, ptr %15) #7
  call void @llvm.lifetime.end.p0(i64 128, ptr %14) #7
  call void @llvm.lifetime.end.p0(i64 4, ptr %13) #7
  call void @llvm.lifetime.end.p0(i64 4, ptr %12) #7
  %157 = load i32, ptr %6, align 4
  ret i32 %157
}