; Function Attrs: nounwind uwtable
define hidden range(i32 -26880, 1) i32 @mbedtls_net_accept(ptr noundef captures(none) %0, ptr noundef captures(none) %1, ptr noundef writeonly %2, i64 noundef %3, ptr noundef writeonly captures(none) %4) local_unnamed_addr #1 {
  %6 = alloca i32, align 4
  %7 = alloca %struct.sockaddr_storage, align 8
  %8 = alloca i32, align 4
  %9 = alloca i32, align 4
  %10 = alloca [1 x i8], align 1
  %11 = alloca %struct.sockaddr_storage, align 8
  %12 = alloca i32, align 4
  call void @llvm.lifetime.start.p0(i64 4, ptr nonnull %6) #9
  call void @llvm.lifetime.start.p0(i64 128, ptr nonnull %7) #9
  call void @llvm.lifetime.start.p0(i64 4, ptr nonnull %8) #9
  store i32 128, ptr %8, align 4, !tbaa !22
  call void @llvm.lifetime.start.p0(i64 4, ptr nonnull %9) #9
  store i32 4, ptr %9, align 4, !tbaa !22
  %13 = load i32, ptr %0, align 4, !tbaa !3
  %14 = call i32 @getsockopt(i32 noundef %13, i32 noundef 1, i32 noundef 3, ptr noundef nonnull %6, ptr noundef nonnull %9) #9
  %.not = icmp eq i32 %14, 0
  br i1 %.not, label %15, label %66

15:                                               ; preds = %5
  %16 = load i32, ptr %6, align 4, !tbaa !22
  %17 = add i32 %16, -3
  %or.cond = icmp ult i32 %17, -2
  br i1 %or.cond, label %66, label %18

18:                                               ; preds = %15
  %19 = icmp eq i32 %16, 1
  br i1 %19, label %20, label %23

20:                                               ; preds = %18
  %21 = load i32, ptr %0, align 4, !tbaa !3
  %22 = call i32 @accept(i32 noundef %21, ptr noundef nonnull %7, ptr noundef nonnull %8) #9
  store i32 %22, ptr %1, align 4, !tbaa !3
  br label %27

23:                                               ; preds = %18
  call void @llvm.lifetime.start.p0(i64 1, ptr nonnull %10) #9
  store i8 0, ptr %10, align 1
  %24 = load i32, ptr %0, align 4, !tbaa !3
  %25 = call i64 @recvfrom(i32 noundef %24, ptr noundef nonnull %10, i64 noundef 1, i32 noundef 2, ptr noundef nonnull %7, ptr noundef nonnull %8) #9
  %26 = trunc i64 %25 to i32
  call void @llvm.lifetime.end.p0(i64 1, ptr nonnull %10) #9
  br label %27

27:                                               ; preds = %23, %20
  %.033 = phi i32 [ %22, %20 ], [ %26, %23 ]
  %28 = icmp slt i32 %.033, 0
  br i1 %28, label %29, label %34

29:                                               ; preds = %27
  %.val = load i32, ptr %0, align 4, !tbaa !3
  %30 = tail call ptr @__errno_location() #10
  %31 = load i32, ptr %30, align 4, !tbaa !22
  %32 = call i32 (i32, i32, ...) @fcntl(i32 noundef %.val, i32 noundef 3) #9
  %33 = and i32 %32, 2048
  %.not.not.i = icmp eq i32 %33, 0
  %cond.i = icmp ne i32 %31, 11
  %narrow.i.not = select i1 %.not.not.i, i1 true, i1 %cond.i
  store i32 %31, ptr %30, align 4, !tbaa !22
  %. = select i1 %narrow.i.not, i32 -74, i32 -26880
  br label %66

34:                                               ; preds = %27
  %35 = load i32, ptr %6, align 4, !tbaa !22
  %.not39 = icmp eq i32 %35, 1
  br i1 %.not39, label %55, label %36

36:                                               ; preds = %34
  call void @llvm.lifetime.start.p0(i64 128, ptr nonnull %11) #9
  call void @llvm.lifetime.start.p0(i64 4, ptr nonnull %12) #9
  store i32 1, ptr %12, align 4, !tbaa !22
  %37 = load i32, ptr %0, align 4, !tbaa !3
  %38 = load i32, ptr %8, align 4, !tbaa !22
  %39 = call i32 @connect(i32 noundef %37, ptr noundef nonnull %7, i32 noundef %38) #9
  %.not40 = icmp eq i32 %39, 0
  br i1 %.not40, label %40, label %.thread

40:                                               ; preds = %36
  %41 = load i32, ptr %0, align 4, !tbaa !3
  store i32 %41, ptr %1, align 4, !tbaa !3
  store i32 -1, ptr %0, align 4, !tbaa !3
  store i32 128, ptr %8, align 4, !tbaa !22
  %42 = load i32, ptr %1, align 4, !tbaa !3
  %43 = call i32 @getsockname(i32 noundef %42, ptr noundef nonnull %11, ptr noundef nonnull %8) #9
  %.not41 = icmp eq i32 %43, 0
  br i1 %.not41, label %44, label %.thread

44:                                               ; preds = %40
  %45 = load i16, ptr %11, align 8, !tbaa !24
  %46 = zext i16 %45 to i32
  %47 = call i32 @socket(i32 noundef %46, i32 noundef 2, i32 noundef 17) #9
  store i32 %47, ptr %0, align 4, !tbaa !3
  %48 = icmp slt i32 %47, 0
  br i1 %48, label %.thread, label %49

49:                                               ; preds = %44
  %50 = call i32 @setsockopt(i32 noundef %47, i32 noundef 1, i32 noundef 2, ptr noundef nonnull %12, i32 noundef 4) #9
  %.not42 = icmp eq i32 %50, 0
  br i1 %.not42, label %51, label %.thread

.thread:                                          ; preds = %36, %49, %44, %40
  %.2.ph = phi i32 [ -66, %40 ], [ -66, %44 ], [ -66, %49 ], [ -74, %36 ]
  call void @llvm.lifetime.end.p0(i64 4, ptr nonnull %12) #9
  call void @llvm.lifetime.end.p0(i64 128, ptr nonnull %11) #9
  br label %66

51:                                               ; preds = %49
  %52 = load i32, ptr %0, align 4, !tbaa !3
  %53 = load i32, ptr %8, align 4, !tbaa !22
  %54 = call i32 @bind(i32 noundef %52, ptr noundef nonnull %11, i32 noundef %53) #9
  %.not43 = icmp eq i32 %54, 0
  call void @llvm.lifetime.end.p0(i64 4, ptr nonnull %12) #9
  call void @llvm.lifetime.end.p0(i64 128, ptr nonnull %11) #9
  br i1 %.not43, label %55, label %66

55:                                               ; preds = %51, %34
  %.not44 = icmp eq ptr %2, null
  br i1 %.not44, label %66, label %56

56:                                               ; preds = %55
  %57 = load i16, ptr %7, align 8, !tbaa !24
  %58 = icmp eq i16 %57, 2
  br i1 %58, label %59, label %63

59:                                               ; preds = %56
  store i64 4, ptr %4, align 8, !tbaa !28
  %60 = icmp ugt i64 %3, 3
  br i1 %60, label %.thread50, label %66

.thread50:                                        ; preds = %59
  %61 = getelementptr inbounds nuw i8, ptr %7, i64 4
  %62 = load i32, ptr %61, align 4
  store i32 %62, ptr %2, align 1
  br label %66

63:                                               ; preds = %56
  store i64 16, ptr %4, align 8, !tbaa !28
  %64 = icmp ugt i64 %3, 15
  br i1 %64, label %.thread52, label %66

.thread52:                                        ; preds = %63
  %65 = getelementptr inbounds nuw i8, ptr %7, i64 8
  call void @llvm.memcpy.p0.p0.i64(ptr noundef nonnull align 1 dereferenceable(16) %2, ptr noundef nonnull align 8 dereferenceable(16) %65, i64 16, i1 false)
  br label %66

66:                                               ; preds = %55, %.thread50, %.thread52, %63, %59, %.thread, %29, %5, %15, %51
  %.0 = phi i32 [ -70, %51 ], [ -74, %15 ], [ -74, %5 ], [ %., %29 ], [ %.2.ph, %.thread ], [ -67, %59 ], [ -67, %63 ], [ 0, %.thread52 ], [ 0, %.thread50 ], [ 0, %55 ]
  call void @llvm.lifetime.end.p0(i64 4, ptr nonnull %9) #9
  call void @llvm.lifetime.end.p0(i64 4, ptr nonnull %8) #9
  call void @llvm.lifetime.end.p0(i64 128, ptr nonnull %7) #9
  call void @llvm.lifetime.end.p0(i64 4, ptr nonnull %6) #9
  ret i32 %.0
}